; Function Attrs: cold nounwind optsize uwtable
define internal void @uninit(ptr noundef readonly captures(none) %0) #0 {
  %2 = getelementptr inbounds nuw i8, ptr %0, i64 72
  %3 = load ptr, ptr %2, align 8, !tbaa !4
  %4 = getelementptr inbounds nuw i8, ptr %3, i64 72
  tail call void @av_frame_free(ptr noundef nonnull %4) #15
  %5 = getelementptr inbounds nuw i8, ptr %3, i64 64
  tail call void @av_freep(ptr noundef nonnull %5) #15
  %6 = getelementptr inbounds nuw i8, ptr %3, i64 52
  store i32 0, ptr %6, align 4, !tbaa !28
  %7 = getelementptr inbounds nuw i8, ptr %3, i64 56
  store i32 0, ptr %7, align 8, !tbaa !29
  ret void
}